target datalayout = "e-m:e-p270:32:32-p271:32:32-p272:64:64-i64:64-i128:128-f80:128-n8:16:32:64-S128"
target triple = "x86_64-pc-linux-gnu"

%struct.jpeg_decompress_struct = type { ptr, ptr, ptr, ptr, i32, i32, ptr, i32, i32, i32, i32, i32, i32, i32, double, i32, i32, i32, i32, i32, i32, i32, i32, i32, i32, i32, i32, i32, i32, i32, i32, i32, i32, ptr, i32, i32, i32, i32, i32, ptr, [4 x ptr], [4 x ptr], [4 x ptr], i32, ptr, i32, i32, [16 x i8], [16 x i8], [16 x i8], i32, i32, i8, i8, i8, i16, i16, i32, i8, i32, ptr, i32, i32, i32, i32, ptr, i32, [4 x ptr], i32, i32, i32, [10 x i32], i32, i32, i32, i32, i32, ptr, ptr, ptr, ptr, ptr, ptr, ptr, ptr, ptr, ptr, ptr }
%struct.jpeg_marker_reader = type { ptr, ptr, ptr, i32, i32, i32, i32 }
%struct.my_marker_reader = type { %struct.jpeg_marker_reader, ptr, [16 x ptr], i32, [16 x i32], ptr, i32 }

; Function Attrs: nounwind uwtable
define internal void @reset_marker_reader(ptr noundef %0) #0 {
  %2 = alloca ptr, align 8
  %3 = alloca ptr, align 8
  store ptr %0, ptr %2, align 8
  %4 = load ptr, ptr %2, align 8
  %5 = getelementptr inbounds %struct.jpeg_decompress_struct, ptr %4, i32 0, i32 82
  %6 = load ptr, ptr %5, align 8
  store ptr %6, ptr %3, align 8
  %7 = load ptr, ptr %2, align 8
  %8 = getelementptr inbounds %struct.jpeg_decompress_struct, ptr %7, i32 0, i32 44
  store ptr null, ptr %8, align 8
  %9 = load ptr, ptr %2, align 8
  %10 = getelementptr inbounds %struct.jpeg_decompress_struct, ptr %9, i32 0, i32 35
  store i32 0, ptr %10, align 4
  %11 = load ptr, ptr %2, align 8
  %12 = getelementptr inbounds %struct.jpeg_decompress_struct, ptr %11, i32 0, i32 76
  store i32 0, ptr %12, align 4
  %13 = load ptr, ptr %3, align 8
  %14 = getelementptr inbounds %struct.my_marker_reader, ptr %13, i32 0, i32 0
  %15 = getelementptr inbounds %struct.jpeg_marker_reader, ptr %14, i32 0, i32 3
  store i32 0, ptr %15, align 8
  %16 = load ptr, ptr %3, align 8
  %17 = getelementptr inbounds %struct.my_marker_reader, ptr %16, i32 0, i32 0
  %18 = getelementptr inbounds %struct.jpeg_marker_reader, ptr %17, i32 0, i32 4
  store i32 0, ptr %18, align 4
  %19 = load ptr, ptr %3, align 8
  %20 = getelementptr inbounds %struct.my_marker_reader, ptr %19, i32 0, i32 0
  %21 = getelementptr inbounds %struct.jpeg_marker_reader, ptr %20, i32 0, i32 6
  store i32 0, ptr %21, align 4
  %22 = load ptr, ptr %3, align 8
  %23 = getelementptr inbounds %struct.my_marker_reader, ptr %22, i32 0, i32 5
  store ptr null, ptr %23, align 8
  ret void
}